; Function Attrs: mustprogress uwtable
define void @_ZN3zmq13socket_base_t12process_termEi(ptr noundef nonnull align 8 dereferenceable(1825) %0, i32 noundef %1) unnamed_addr #0 align 2 {
  tail call void @_ZN3zmq8object_t20unregister_endpointsEPNS_13socket_base_tE(ptr noundef nonnull align 8 dereferenceable(20) %0, ptr noundef nonnull %0)
  %3 = getelementptr inbounds nuw i8, ptr %0, i64 1640
  %4 = getelementptr inbounds nuw i8, ptr %0, i64 1648
  %5 = load ptr, ptr %4, align 8, !tbaa !133
  %6 = load ptr, ptr %3, align 8, !tbaa !115
  %7 = ptrtoint ptr %5 to i64
  %8 = ptrtoint ptr %6 to i64
  %9 = sub i64 %7, %8
  %10 = ashr exact i64 %9, 3
  %.not6 = icmp eq ptr %5, %6
  br i1 %.not6, label %._crit_edge, label %.lr.ph

._crit_edge.loopexit:                             ; preds = %.lr.ph
  %.pre = load ptr, ptr %4, align 8, !tbaa !133
  %.pre8 = load ptr, ptr %3, align 8, !tbaa !115
  %.pre9 = ptrtoint ptr %.pre to i64
  %.pre10 = ptrtoint ptr %.pre8 to i64
  br label %._crit_edge

._crit_edge:                                      ; preds = %._crit_edge.loopexit, %2
  %.pre-phi11 = phi i64 [ %.pre10, %._crit_edge.loopexit ], [ %7, %2 ]
  %.pre-phi = phi i64 [ %.pre9, %._crit_edge.loopexit ], [ %7, %2 ]
  %11 = sub i64 %.pre-phi, %.pre-phi11
  %12 = lshr exact i64 %11, 3
  %13 = trunc i64 %12 to i32
  tail call void @_ZN3zmq5own_t18register_term_acksEi(ptr noundef nonnull align 8 dereferenceable(1444) %0, i32 noundef %13)
  tail call void @_ZN3zmq5own_t12process_termEi(ptr noundef nonnull align 8 dereferenceable(1444) %0, i32 noundef %1)
  ret void

.lr.ph:                                           ; preds = %2, %.lr.ph
  %.07 = phi i64 [ %20, %.lr.ph ], [ 0, %2 ]
  %14 = load ptr, ptr %3, align 8, !tbaa !115
  %15 = getelementptr inbounds nuw ptr, ptr %14, i64 %.07
  %16 = load ptr, ptr %15, align 8, !tbaa !3
  tail call void @_ZN3zmq6pipe_t19send_disconnect_msgEv(ptr noundef nonnull align 8 dereferenceable(328) %16)
  %17 = load ptr, ptr %3, align 8, !tbaa !115
  %18 = getelementptr inbounds nuw ptr, ptr %17, i64 %.07
  %19 = load ptr, ptr %18, align 8, !tbaa !3
  tail call void @_ZN3zmq6pipe_t9terminateEb(ptr noundef nonnull align 8 dereferenceable(328) %19, i1 noundef zeroext false)
  %20 = add i64 %.07, 1
  %.not = icmp eq i64 %20, %10
  br i1 %.not, label %._crit_edge.loopexit, label %.lr.ph, !llvm.loop !216
}